target datalayout = "e-m:e-p270:32:32-p271:32:32-p272:64:64-i64:64-i128:128-f80:128-n8:16:32:64-S128"
target triple = "x86_64-pc-linux-gnu"

%"union.std::aligned_storage<24, 8>::type" = type { [24 x i8] }
%"class.cv::detail::VectorRefT" = type { %"class.cv::detail::BasicVectorRef.base", %"class.cv::util::variant.436" }
%"class.cv::detail::BasicVectorRef.base" = type <{ ptr, i64, i8 }>
%"class.cv::util::variant.436" = type { i64, [1 x %"union.std::aligned_storage<24, 8>::type"] }
%"struct.std::array.439" = type { [4 x ptr] }

; Function Attrs: mustprogress nounwind uwtable
define linkonce_odr hidden noundef nonnull align 8 dereferenceable(8) ptr @_ZNSt14__array_traitsIPFvPNSt15aligned_storageILm24ELm8EE4typeEELm4EE6_S_refERA4_KS5_m(ptr noundef nonnull align 8 dereferenceable(32) %0, i64 noundef %1) #5 comdat align 2 {
  %3 = alloca ptr, align 8
  %4 = alloca i64, align 8
  store ptr %0, ptr %3, align 8, !tbaa !449
  store i64 %1, ptr %4, align 8, !tbaa !30
  %5 = load ptr, ptr %3, align 8, !tbaa !449
  %6 = load i64, ptr %4, align 8, !tbaa !30
  %7 = getelementptr inbounds nuw [4 x ptr], ptr %5, i64 0, i64 %6
  ret ptr %7
}

; Function Attrs: mustprogress nounwind uwtable
define linkonce_odr hidden noundef nonnull align 8 dereferenceable(8) ptr @_ZNSt5arrayIPFvPNSt15aligned_storageILm24ELm8EE4typeEELm4EEixEm(ptr noundef nonnull align 8 dereferenceable(32) %0, i64 noundef %1) #5 comdat align 2 {
  %3 = alloca ptr, align 8
  %4 = alloca i64, align 8
  store ptr %0, ptr %3, align 8, !tbaa !1473
  store i64 %1, ptr %4, align 8, !tbaa !30
  %5 = load ptr, ptr %3, align 8
  %6 = getelementptr inbounds nuw %"struct.std::array.439", ptr %5, i32 0, i32 0
  %7 = load i64, ptr %4, align 8, !tbaa !30
  %8 = call noundef nonnull align 8 dereferenceable(8) ptr @_ZNSt14__array_traitsIPFvPNSt15aligned_storageILm24ELm8EE4typeEELm4EE6_S_refERA4_KS5_m(ptr noundef nonnull align 8 dereferenceable(32) %6, i64 noundef %7) #3
  ret ptr %8
}

; Function Attrs: mustprogress nounwind uwtable
define internal void @_ZN2cv4util7variantIJNS0_9monostateEPKSt6vectorIN6custom12_GLOBAL__N_14FaceESaIS6_EEPS8_S8_EE5dtorsEv(ptr dead_on_unwind noalias writable sret(%"struct.std::array.439") align 8 %0) #5 align 2 {
  %2 = getelementptr inbounds nuw %"struct.std::array.439", ptr %0, i32 0, i32 0
  call void @llvm.memcpy.p0.p0.i64(ptr align 8 %2, ptr align 8 @constinit.63, i64 32, i1 false), !tbaa.struct !1472
  ret void
}

; Function Attrs: mustprogress nounwind uwtable
define linkonce_odr hidden void @_ZN2cv6detail14BasicVectorRefD2Ev(ptr noundef nonnull align 8 dereferenceable(17) %0) unnamed_addr #5 comdat align 2 {
  %2 = alloca ptr, align 8
  store ptr %0, ptr %2, align 8, !tbaa !1479
  ret void
}

; Function Attrs: mustprogress nounwind uwtable
define internal void @_ZN2cv4util7variantIJNS0_9monostateEPKSt6vectorIN6custom12_GLOBAL__N_14FaceESaIS6_EEPS8_S8_EED2Ev(ptr noundef nonnull align 8 dereferenceable(32) %0) unnamed_addr #5 align 2 personality ptr @__gxx_personality_v0 {
  %2 = alloca ptr, align 8
  %3 = alloca %"struct.std::array.439", align 8
  store ptr %0, ptr %2, align 8, !tbaa !1468
  %4 = load ptr, ptr %2, align 8
  call void @llvm.lifetime.start.p0(i64 32, ptr %3) #3
  invoke void @_ZN2cv4util7variantIJNS0_9monostateEPKSt6vectorIN6custom12_GLOBAL__N_14FaceESaIS6_EEPS8_S8_EE5dtorsEv(ptr dead_on_unwind writable sret(%"struct.std::array.439") align 8 %3)
          to label %5 unwind label %13

5:                                                ; preds = %1
  %6 = getelementptr inbounds nuw %"class.cv::util::variant.436", ptr %4, i32 0, i32 0
  %7 = load i64, ptr %6, align 8, !tbaa !1470
  %8 = call noundef nonnull align 8 dereferenceable(8) ptr @_ZNSt5arrayIPFvPNSt15aligned_storageILm24ELm8EE4typeEELm4EEixEm(ptr noundef nonnull align 8 dereferenceable(32) %3, i64 noundef %7) #3
  %9 = load ptr, ptr %8, align 8, !tbaa !72
  %10 = getelementptr inbounds nuw %"class.cv::util::variant.436", ptr %4, i32 0, i32 1
  %11 = getelementptr inbounds [1 x %"union.std::aligned_storage<24, 8>::type"], ptr %10, i64 0, i64 0
  invoke void %9(ptr noundef %11)
          to label %12 unwind label %13

12:                                               ; preds = %5
  call void @llvm.lifetime.end.p0(i64 32, ptr %3) #3
  ret void

13:                                               ; preds = %5, %1
  %14 = landingpad { ptr, i32 }
          catch ptr null
  %15 = extractvalue { ptr, i32 } %14, 0
  call void @__clang_call_terminate(ptr %15) #29
  unreachable
}

; Function Attrs: mustprogress nounwind uwtable
define internal void @_ZN2cv6detail10VectorRefTIN6custom12_GLOBAL__N_14FaceEED2Ev(ptr noundef nonnull align 8 dereferenceable(56) %0) unnamed_addr #5 align 2 {
  %2 = alloca ptr, align 8
  store ptr %0, ptr %2, align 8, !tbaa !1454
  %3 = load ptr, ptr %2, align 8
  %4 = getelementptr inbounds nuw %"class.cv::detail::VectorRefT", ptr %3, i32 0, i32 1
  call void @_ZN2cv4util7variantIJNS0_9monostateEPKSt6vectorIN6custom12_GLOBAL__N_14FaceESaIS6_EEPS8_S8_EED2Ev(ptr noundef nonnull align 8 dereferenceable(32) %4) #3
  call void @_ZN2cv6detail14BasicVectorRefD2Ev(ptr noundef nonnull align 8 dereferenceable(17) %3) #3
  ret void
}

; Function Attrs: mustprogress nounwind uwtable
define internal void @_ZN2cv6detail10VectorRefTIN6custom12_GLOBAL__N_14FaceEED0Ev(ptr noundef nonnull align 8 dereferenceable(56) %0) unnamed_addr #5 align 2 {
  %2 = alloca ptr, align 8
  store ptr %0, ptr %2, align 8, !tbaa !1454
  %3 = load ptr, ptr %2, align 8
  call void @_ZN2cv6detail10VectorRefTIN6custom12_GLOBAL__N_14FaceEED2Ev(ptr noundef nonnull align 8 dereferenceable(56) %3) #3
  call void @_ZdlPv(ptr noundef %3) #32
  ret void
}